target datalayout = "e-m:e-p270:32:32-p271:32:32-p272:64:64-i64:64-i128:128-f80:128-n8:16:32:64-S128"
target triple = "x86_64-pc-linux-gnu"

%union.ListCell = type { ptr }
%struct.ForEachState = type { ptr, i32 }
%struct.FmgrInfo = type { ptr, i32, i16, i8, i8, i8, ptr, ptr, ptr }
%struct.SQLFunctionCache = type { ptr, ptr, ptr, i32, i16, i8, i8, i8, i8, i8, i8, ptr, ptr, ptr, ptr, ptr, i32, i32 }
%struct.List = type { i32, i32, i32, ptr, [0 x %union.ListCell] }
%struct.execution_state = type { ptr, i32, i8, i8, ptr, ptr }

@.str.20 = private unnamed_addr constant [31 x i8] c"SQL function \22%s\22 statement %d\00", align 1
@.str.21 = private unnamed_addr constant [18 x i8] c"SQL function \22%s\22\00", align 1
@.str.22 = private unnamed_addr constant [33 x i8] c"SQL function \22%s\22 during startup\00", align 1

; Function Attrs: nounwind uwtable
define internal void @sql_exec_error_callback(ptr noundef %0) #0 {
  %2 = alloca ptr, align 8
  %3 = alloca ptr, align 8
  %4 = alloca ptr, align 8
  %5 = alloca i32, align 4
  %6 = alloca i32, align 4
  %7 = alloca ptr, align 8
  %8 = alloca i32, align 4
  %9 = alloca ptr, align 8
  %10 = alloca %struct.ForEachState, align 8
  store ptr %0, ptr %2, align 8
  call void @llvm.lifetime.start.p0(i64 8, ptr %3) #8
  %11 = load ptr, ptr %2, align 8
  store ptr %11, ptr %3, align 8
  call void @llvm.lifetime.start.p0(i64 8, ptr %4) #8
  %12 = load ptr, ptr %3, align 8
  %13 = getelementptr inbounds nuw %struct.FmgrInfo, ptr %12, i32 0, i32 6
  %14 = load ptr, ptr %13, align 8
  store ptr %14, ptr %4, align 8
  call void @llvm.lifetime.start.p0(i64 4, ptr %5) #8
  %15 = load ptr, ptr %4, align 8
  %16 = icmp eq ptr %15, null
  br i1 %16, label %22, label %17

17:                                               ; preds = %1
  %18 = load ptr, ptr %4, align 8
  %19 = getelementptr inbounds nuw %struct.SQLFunctionCache, ptr %18, i32 0, i32 0
  %20 = load ptr, ptr %19, align 8
  %21 = icmp eq ptr %20, null
  br i1 %21, label %22, label %23

22:                                               ; preds = %17, %1
  store i32 1, ptr %6, align 4
  br label %129

23:                                               ; preds = %17
  %24 = call i32 @geterrposition()
  store i32 %24, ptr %5, align 4
  %25 = load i32, ptr %5, align 4
  %26 = icmp sgt i32 %25, 0
  br i1 %26, label %27, label %40

27:                                               ; preds = %23
  %28 = load ptr, ptr %4, align 8
  %29 = getelementptr inbounds nuw %struct.SQLFunctionCache, ptr %28, i32 0, i32 1
  %30 = load ptr, ptr %29, align 8
  %31 = icmp ne ptr %30, null
  br i1 %31, label %32, label %40

32:                                               ; preds = %27
  %33 = call i32 @errposition(i32 noundef 0)
  %34 = load i32, ptr %5, align 4
  %35 = call i32 @internalerrposition(i32 noundef %34)
  %36 = load ptr, ptr %4, align 8
  %37 = getelementptr inbounds nuw %struct.SQLFunctionCache, ptr %36, i32 0, i32 1
  %38 = load ptr, ptr %37, align 8
  %39 = call i32 @internalerrquery(ptr noundef %38)
  br label %40

40:                                               ; preds = %32, %27, %23
  %41 = load ptr, ptr %4, align 8
  %42 = getelementptr inbounds nuw %struct.SQLFunctionCache, ptr %41, i32 0, i32 14
  %43 = load ptr, ptr %42, align 8
  %44 = icmp ne ptr %43, null
  br i1 %44, label %45, label %122

45:                                               ; preds = %40
  call void @llvm.lifetime.start.p0(i64 8, ptr %7) #8
  call void @llvm.lifetime.start.p0(i64 4, ptr %8) #8
  call void @llvm.lifetime.start.p0(i64 8, ptr %9) #8
  store ptr null, ptr %7, align 8
  store i32 1, ptr %8, align 4
  call void @llvm.lifetime.start.p0(i64 16, ptr %10) #8
  %46 = getelementptr inbounds nuw %struct.ForEachState, ptr %10, i32 0, i32 0
  %47 = load ptr, ptr %4, align 8
  %48 = getelementptr inbounds nuw %struct.SQLFunctionCache, ptr %47, i32 0, i32 14
  %49 = load ptr, ptr %48, align 8
  store ptr %49, ptr %46, align 8
  %50 = getelementptr inbounds nuw %struct.ForEachState, ptr %10, i32 0, i32 1
  store i32 0, ptr %50, align 8
  %51 = getelementptr i8, ptr %10, i64 12
  call void @llvm.memset.p0.i64(ptr align 4 %51, i8 0, i64 4, i1 false)
  br label %52

52:                                               ; preds = %107, %45
  %53 = getelementptr inbounds nuw %struct.ForEachState, ptr %10, i32 0, i32 0
  %54 = load ptr, ptr %53, align 8
  %55 = icmp ne ptr %54, null
  br i1 %55, label %56, label %73

56:                                               ; preds = %52
  %57 = getelementptr inbounds nuw %struct.ForEachState, ptr %10, i32 0, i32 1
  %58 = load i32, ptr %57, align 8
  %59 = getelementptr inbounds nuw %struct.ForEachState, ptr %10, i32 0, i32 0
  %60 = load ptr, ptr %59, align 8
  %61 = getelementptr inbounds nuw %struct.List, ptr %60, i32 0, i32 1
  %62 = load i32, ptr %61, align 4
  %63 = icmp slt i32 %58, %62
  br i1 %63, label %64, label %73

64:                                               ; preds = %56
  %65 = getelementptr inbounds nuw %struct.ForEachState, ptr %10, i32 0, i32 0
  %66 = load ptr, ptr %65, align 8
  %67 = getelementptr inbounds nuw %struct.List, ptr %66, i32 0, i32 3
  %68 = load ptr, ptr %67, align 8
  %69 = getelementptr inbounds nuw %struct.ForEachState, ptr %10, i32 0, i32 1
  %70 = load i32, ptr %69, align 8
  %71 = sext i32 %70 to i64
  %72 = getelementptr inbounds %union.ListCell, ptr %68, i64 %71
  store ptr %72, ptr %9, align 8
  br label %74

73:                                               ; preds = %56, %52
  store ptr null, ptr %9, align 8
  br label %74

74:                                               ; preds = %73, %64
  %75 = phi i32 [ 1, %64 ], [ 0, %73 ]
  %76 = icmp ne i32 %75, 0
  br i1 %76, label %78, label %77

77:                                               ; preds = %74
  store i32 2, ptr %6, align 4
  br label %111

78:                                               ; preds = %74
  %79 = load ptr, ptr %9, align 8
  %80 = load ptr, ptr %79, align 8
  store ptr %80, ptr %7, align 8
  br label %81

81:                                               ; preds = %96, %78
  %82 = load ptr, ptr %7, align 8
  %83 = icmp ne ptr %82, null
  br i1 %83, label %84, label %100

84:                                               ; preds = %81
  %85 = load ptr, ptr %7, align 8
  %86 = getelementptr inbounds nuw %struct.execution_state, ptr %85, i32 0, i32 5
  %87 = load ptr, ptr %86, align 8
  %88 = icmp ne ptr %87, null
  br i1 %88, label %89, label %96

89:                                               ; preds = %84
  %90 = call i32 @set_errcontext_domain(ptr noundef null)
  %91 = load ptr, ptr %4, align 8
  %92 = getelementptr inbounds nuw %struct.SQLFunctionCache, ptr %91, i32 0, i32 0
  %93 = load ptr, ptr %92, align 8
  %94 = load i32, ptr %8, align 4
  %95 = call i32 (ptr, ...) @errcontext_msg(ptr noundef @.str.20, ptr noundef %93, i32 noundef %94)
  br label %100

96:                                               ; preds = %84
  %97 = load ptr, ptr %7, align 8
  %98 = getelementptr inbounds nuw %struct.execution_state, ptr %97, i32 0, i32 0
  %99 = load ptr, ptr %98, align 8
  store ptr %99, ptr %7, align 8
  br label %81, !llvm.loop !14

100:                                              ; preds = %89, %81
  %101 = load ptr, ptr %7, align 8
  %102 = icmp ne ptr %101, null
  br i1 %102, label %103, label %104

103:                                              ; preds = %100
  store i32 2, ptr %6, align 4
  br label %111

104:                                              ; preds = %100
  %105 = load i32, ptr %8, align 4
  %106 = add i32 %105, 1
  store i32 %106, ptr %8, align 4
  br label %107

107:                                              ; preds = %104
  %108 = getelementptr inbounds nuw %struct.ForEachState, ptr %10, i32 0, i32 1
  %109 = load i32, ptr %108, align 8
  %110 = add i32 %109, 1
  store i32 %110, ptr %108, align 8
  br label %52, !llvm.loop !15

111:                                              ; preds = %103, %77
  call void @llvm.lifetime.end.p0(i64 16, ptr %10) #8
  br label %112

112:                                              ; preds = %111
  %113 = load ptr, ptr %7, align 8
  %114 = icmp eq ptr %113, null
  br i1 %114, label %115, label %121

115:                                              ; preds = %112
  %116 = call i32 @set_errcontext_domain(ptr noundef null)
  %117 = load ptr, ptr %4, align 8
  %118 = getelementptr inbounds nuw %struct.SQLFunctionCache, ptr %117, i32 0, i32 0
  %119 = load ptr, ptr %118, align 8
  %120 = call i32 (ptr, ...) @errcontext_msg(ptr noundef @.str.21, ptr noundef %119)
  br label %121

121:                                              ; preds = %115, %112
  call void @llvm.lifetime.end.p0(i64 8, ptr %9) #8
  call void @llvm.lifetime.end.p0(i64 4, ptr %8) #8
  call void @llvm.lifetime.end.p0(i64 8, ptr %7) #8
  br label %128

122:                                              ; preds = %40
  %123 = call i32 @set_errcontext_domain(ptr noundef null)
  %124 = load ptr, ptr %4, align 8
  %125 = getelementptr inbounds nuw %struct.SQLFunctionCache, ptr %124, i32 0, i32 0
  %126 = load ptr, ptr %125, align 8
  %127 = call i32 (ptr, ...) @errcontext_msg(ptr noundef @.str.22, ptr noundef %126)
  br label %128

128:                                              ; preds = %122, %121
  store i32 0, ptr %6, align 4
  br label %129

129:                                              ; preds = %128, %22
  call void @llvm.lifetime.end.p0(i64 4, ptr %5) #8
  call void @llvm.lifetime.end.p0(i64 8, ptr %4) #8
  call void @llvm.lifetime.end.p0(i64 8, ptr %3) #8
  %130 = load i32, ptr %6, align 4
  switch i32 %130, label %132 [
    i32 0, label %131
    i32 1, label %131
  ]

131:                                              ; preds = %129, %129
  ret void

132:                                              ; preds = %129
  unreachable
}