; Function Attrs: nounwind uwtable
define internal void @sql_exec_error_callback(ptr noundef readonly captures(none) %0) #0 {
  %2 = getelementptr inbounds nuw i8, ptr %0, i64 24
  %3 = load ptr, ptr %2, align 8
  %4 = icmp eq ptr %3, null
  br i1 %4, label %44, label %5

5:                                                ; preds = %1
  %6 = load ptr, ptr %3, align 8
  %7 = icmp eq ptr %6, null
  br i1 %7, label %44, label %8

8:                                                ; preds = %5
  %9 = tail call i32 @geterrposition() #11
  %10 = icmp sgt i32 %9, 0
  br i1 %10, label %11, label %19

11:                                               ; preds = %8
  %12 = getelementptr inbounds nuw i8, ptr %3, i64 8
  %13 = load ptr, ptr %12, align 8
  %.not = icmp eq ptr %13, null
  br i1 %.not, label %19, label %14

14:                                               ; preds = %11
  %15 = tail call i32 @errposition(i32 noundef 0) #11
  %16 = tail call i32 @internalerrposition(i32 noundef %9) #11
  %17 = load ptr, ptr %12, align 8
  %18 = tail call i32 @internalerrquery(ptr noundef %17) #11
  br label %19

19:                                               ; preds = %14, %11, %8
  %20 = getelementptr inbounds nuw i8, ptr %3, i64 64
  %21 = load ptr, ptr %20, align 8
  %.not29 = icmp eq ptr %21, null
  br i1 %.not29, label %40, label %.preheader

.preheader:                                       ; preds = %19
  %22 = getelementptr inbounds nuw i8, ptr %21, i64 4
  %23 = load i32, ptr %22, align 4
  %.not31.not38 = icmp sgt i32 %23, 0
  br i1 %.not31.not38, label %.lr.ph, label %.critedge35

.lr.ph:                                           ; preds = %.preheader
  %24 = getelementptr inbounds nuw i8, ptr %21, i64 16
  %25 = load ptr, ptr %24, align 8
  %wide.trip.count = zext nneg i32 %23 to i64
  br label %26

26:                                               ; preds = %.lr.ph, %.critedge
  %indvars.iv = phi i64 [ 0, %.lr.ph ], [ %indvars.iv.next, %.critedge ]
  %.02539 = phi i32 [ 1, %.lr.ph ], [ %32, %.critedge ]
  %27 = getelementptr inbounds nuw %union.ListCell, ptr %25, i64 %indvars.iv
  br label %28

28:                                               ; preds = %26, %29
  %.2.in = phi ptr [ %27, %26 ], [ %.2, %29 ]
  %.2 = load ptr, ptr %.2.in, align 8
  %.not32 = icmp eq ptr %.2, null
  br i1 %.not32, label %.critedge, label %29

29:                                               ; preds = %28
  %30 = getelementptr inbounds nuw i8, ptr %.2, i64 24
  %31 = load ptr, ptr %30, align 8
  %.not33 = icmp eq ptr %31, null
  br i1 %.not33, label %28, label %33, !llvm.loop !13

.critedge:                                        ; preds = %28
  %32 = add nuw i32 %.02539, 1
  %indvars.iv.next = add nuw nsw i64 %indvars.iv, 1
  %exitcond.not = icmp eq i64 %indvars.iv.next, %wide.trip.count
  br i1 %exitcond.not, label %.critedge35, label %26, !llvm.loop !14

33:                                               ; preds = %29
  %34 = tail call i32 @set_errcontext_domain(ptr noundef null) #11
  %35 = load ptr, ptr %3, align 8
  %36 = tail call i32 (ptr, ...) @errcontext_msg(ptr noundef nonnull @.str.20, ptr noundef %35, i32 noundef %.02539) #11
  br label %44

.critedge35:                                      ; preds = %.critedge, %.preheader
  %37 = tail call i32 @set_errcontext_domain(ptr noundef null) #11
  %38 = load ptr, ptr %3, align 8
  %39 = tail call i32 (ptr, ...) @errcontext_msg(ptr noundef nonnull @.str.21, ptr noundef %38) #11
  br label %44

40:                                               ; preds = %19
  %41 = tail call i32 @set_errcontext_domain(ptr noundef null) #11
  %42 = load ptr, ptr %3, align 8
  %43 = tail call i32 (ptr, ...) @errcontext_msg(ptr noundef nonnull @.str.22, ptr noundef %42) #11
  br label %44

44:                                               ; preds = %33, %40, %.critedge35, %1, %5
  ret void
}